target datalayout = "e-m:e-p270:32:32-p271:32:32-p272:64:64-i64:64-i128:128-f80:128-n8:16:32:64-S128"
target triple = "x86_64-pc-linux-gnu"

%struct.FT_ValidatorRec_ = type { [1 x %struct.__jmp_buf_tag], ptr, ptr, i32, i32 }
%struct.__jmp_buf_tag = type { [8 x i64], i32, %struct.__sigset_t }
%struct.__sigset_t = type { [16 x i64] }
%struct.TT_ValidatorRec_ = type { %struct.FT_ValidatorRec_, i32 }

; Function Attrs: nounwind uwtable
define internal i32 @tt_cmap6_validate(ptr noundef %0, ptr noundef %1) #0 {
  %3 = alloca ptr, align 8
  %4 = alloca ptr, align 8
  %5 = alloca ptr, align 8
  %6 = alloca i32, align 4
  %7 = alloca i32, align 4
  %8 = alloca i32, align 4
  store ptr %0, ptr %3, align 8
  store ptr %1, ptr %4, align 8
  %9 = load ptr, ptr %3, align 8
  %10 = getelementptr inbounds i8, ptr %9, i64 10
  %11 = load ptr, ptr %4, align 8
  %12 = getelementptr inbounds %struct.FT_ValidatorRec_, ptr %11, i32 0, i32 2
  %13 = load volatile ptr, ptr %12, align 8
  %14 = icmp ugt ptr %10, %13
  br i1 %14, label %15, label %17

15:                                               ; preds = %2
  %16 = load ptr, ptr %4, align 8
  call void @ft_validator_error(ptr noundef %16, i32 noundef 8)
  br label %17

17:                                               ; preds = %15, %2
  %18 = load ptr, ptr %3, align 8
  %19 = getelementptr inbounds i8, ptr %18, i64 2
  store ptr %19, ptr %5, align 8
  %20 = load ptr, ptr %5, align 8
  %21 = getelementptr inbounds i8, ptr %20, i64 2
  store ptr %21, ptr %5, align 8
  %22 = load ptr, ptr %5, align 8
  %23 = getelementptr inbounds i8, ptr %22, i64 -2
  %24 = getelementptr inbounds i8, ptr %23, i64 0
  %25 = load i8, ptr %24, align 1
  %26 = zext i8 %25 to i16
  %27 = zext i16 %26 to i32
  %28 = shl i32 %27, 8
  %29 = load ptr, ptr %5, align 8
  %30 = getelementptr inbounds i8, ptr %29, i64 -2
  %31 = getelementptr inbounds i8, ptr %30, i64 1
  %32 = load i8, ptr %31, align 1
  %33 = zext i8 %32 to i16
  %34 = zext i16 %33 to i32
  %35 = shl i32 %34, 0
  %36 = or i32 %28, %35
  %37 = trunc i32 %36 to i16
  %38 = zext i16 %37 to i32
  store i32 %38, ptr %6, align 4
  %39 = load ptr, ptr %3, align 8
  %40 = getelementptr inbounds i8, ptr %39, i64 8
  store ptr %40, ptr %5, align 8
  %41 = load ptr, ptr %5, align 8
  %42 = getelementptr inbounds i8, ptr %41, i64 2
  store ptr %42, ptr %5, align 8
  %43 = load ptr, ptr %5, align 8
  %44 = getelementptr inbounds i8, ptr %43, i64 -2
  %45 = getelementptr inbounds i8, ptr %44, i64 0
  %46 = load i8, ptr %45, align 1
  %47 = zext i8 %46 to i16
  %48 = zext i16 %47 to i32
  %49 = shl i32 %48, 8
  %50 = load ptr, ptr %5, align 8
  %51 = getelementptr inbounds i8, ptr %50, i64 -2
  %52 = getelementptr inbounds i8, ptr %51, i64 1
  %53 = load i8, ptr %52, align 1
  %54 = zext i8 %53 to i16
  %55 = zext i16 %54 to i32
  %56 = shl i32 %55, 0
  %57 = or i32 %49, %56
  %58 = trunc i32 %57 to i16
  %59 = zext i16 %58 to i32
  store i32 %59, ptr %7, align 4
  %60 = load ptr, ptr %3, align 8
  %61 = load i32, ptr %6, align 4
  %62 = zext i32 %61 to i64
  %63 = getelementptr inbounds i8, ptr %60, i64 %62
  %64 = load ptr, ptr %4, align 8
  %65 = getelementptr inbounds %struct.FT_ValidatorRec_, ptr %64, i32 0, i32 2
  %66 = load volatile ptr, ptr %65, align 8
  %67 = icmp ugt ptr %63, %66
  br i1 %67, label %74, label %68

68:                                               ; preds = %17
  %69 = load i32, ptr %6, align 4
  %70 = load i32, ptr %7, align 4
  %71 = mul i32 %70, 2
  %72 = add i32 10, %71
  %73 = icmp ult i32 %69, %72
  br i1 %73, label %74, label %76

74:                                               ; preds = %68, %17
  %75 = load ptr, ptr %4, align 8
  call void @ft_validator_error(ptr noundef %75, i32 noundef 8)
  br label %76

76:                                               ; preds = %74, %68
  %77 = load ptr, ptr %4, align 8
  %78 = getelementptr inbounds %struct.FT_ValidatorRec_, ptr %77, i32 0, i32 3
  %79 = load volatile i32, ptr %78, align 8
  %80 = icmp uge i32 %79, 1
  br i1 %80, label %81, label %117

81:                                               ; preds = %76
  br label %82

82:                                               ; preds = %113, %81
  %83 = load i32, ptr %7, align 4
  %84 = icmp ugt i32 %83, 0
  br i1 %84, label %85, label %116

85:                                               ; preds = %82
  %86 = load ptr, ptr %5, align 8
  %87 = getelementptr inbounds i8, ptr %86, i64 2
  store ptr %87, ptr %5, align 8
  %88 = load ptr, ptr %5, align 8
  %89 = getelementptr inbounds i8, ptr %88, i64 -2
  %90 = getelementptr inbounds i8, ptr %89, i64 0
  %91 = load i8, ptr %90, align 1
  %92 = zext i8 %91 to i16
  %93 = zext i16 %92 to i32
  %94 = shl i32 %93, 8
  %95 = load ptr, ptr %5, align 8
  %96 = getelementptr inbounds i8, ptr %95, i64 -2
  %97 = getelementptr inbounds i8, ptr %96, i64 1
  %98 = load i8, ptr %97, align 1
  %99 = zext i8 %98 to i16
  %100 = zext i16 %99 to i32
  %101 = shl i32 %100, 0
  %102 = or i32 %94, %101
  %103 = trunc i32 %102 to i16
  %104 = zext i16 %103 to i32
  store i32 %104, ptr %8, align 4
  %105 = load i32, ptr %8, align 4
  %106 = load ptr, ptr %4, align 8
  %107 = getelementptr inbounds %struct.TT_ValidatorRec_, ptr %106, i32 0, i32 1
  %108 = load i32, ptr %107, align 8
  %109 = icmp uge i32 %105, %108
  br i1 %109, label %110, label %112

110:                                              ; preds = %85
  %111 = load ptr, ptr %4, align 8
  call void @ft_validator_error(ptr noundef %111, i32 noundef 16)
  br label %112

112:                                              ; preds = %110, %85
  br label %113

113:                                              ; preds = %112
  %114 = load i32, ptr %7, align 4
  %115 = add i32 %114, -1
  store i32 %115, ptr %7, align 4
  br label %82, !llvm.loop !15

116:                                              ; preds = %82
  br label %117

117:                                              ; preds = %116, %76
  ret i32 0
}