; Function Attrs: nounwind uwtable
define internal noundef i32 @tt_cmap6_validate(ptr noundef readonly %0, ptr noundef %1) #0 {
  %3 = getelementptr inbounds i8, ptr %0, i64 10
  %4 = getelementptr inbounds i8, ptr %1, i64 208
  %5 = load volatile ptr, ptr %4, align 8
  %6 = icmp ugt ptr %3, %5
  br i1 %6, label %7, label %8

7:                                                ; preds = %2
  tail call void @ft_validator_error(ptr noundef nonnull %1, i32 noundef 8) #26
  br label %8

8:                                                ; preds = %7, %2
  %9 = getelementptr inbounds i8, ptr %0, i64 2
  %10 = load i8, ptr %9, align 1
  %11 = zext i8 %10 to i32
  %12 = shl nuw nsw i32 %11, 8
  %13 = getelementptr inbounds i8, ptr %0, i64 3
  %14 = load i8, ptr %13, align 1
  %15 = zext i8 %14 to i32
  %16 = or disjoint i32 %12, %15
  %17 = getelementptr inbounds i8, ptr %0, i64 8
  %18 = load i8, ptr %17, align 1
  %19 = zext i8 %18 to i32
  %20 = shl nuw nsw i32 %19, 8
  %21 = getelementptr inbounds i8, ptr %0, i64 9
  %22 = load i8, ptr %21, align 1
  %23 = zext i8 %22 to i32
  %24 = or disjoint i32 %20, %23
  %25 = zext nneg i32 %16 to i64
  %26 = getelementptr inbounds i8, ptr %0, i64 %25
  %27 = load volatile ptr, ptr %4, align 8
  %28 = icmp ugt ptr %26, %27
  br i1 %28, label %33, label %29

29:                                               ; preds = %8
  %30 = shl nuw nsw i32 %24, 1
  %31 = add nuw nsw i32 %30, 10
  %32 = icmp ult i32 %16, %31
  br i1 %32, label %33, label %34

33:                                               ; preds = %29, %8
  tail call void @ft_validator_error(ptr noundef nonnull %1, i32 noundef 8) #26
  br label %34

34:                                               ; preds = %33, %29
  %35 = getelementptr inbounds i8, ptr %1, i64 216
  %36 = load volatile i32, ptr %35, align 8
  %37 = icmp ne i32 %36, 0
  %38 = icmp ne i32 %24, 0
  %or.cond = select i1 %37, i1 %38, i1 false
  br i1 %or.cond, label %.preheader, label %.loopexit

.preheader:                                       ; preds = %34
  %39 = getelementptr inbounds i8, ptr %1, i64 224
  br label %40

40:                                               ; preds = %.preheader, %51
  %.027 = phi i32 [ %52, %51 ], [ %24, %.preheader ]
  %.0 = phi ptr [ %41, %51 ], [ %3, %.preheader ]
  %41 = getelementptr inbounds i8, ptr %.0, i64 2
  %42 = load i8, ptr %.0, align 1
  %43 = zext i8 %42 to i32
  %44 = shl nuw nsw i32 %43, 8
  %45 = getelementptr inbounds i8, ptr %.0, i64 1
  %46 = load i8, ptr %45, align 1
  %47 = zext i8 %46 to i32
  %48 = or disjoint i32 %44, %47
  %49 = load i32, ptr %39, align 8
  %.not = icmp ult i32 %48, %49
  br i1 %.not, label %51, label %50

50:                                               ; preds = %40
  tail call void @ft_validator_error(ptr noundef nonnull %1, i32 noundef 16) #26
  br label %51

51:                                               ; preds = %40, %50
  %52 = add nsw i32 %.027, -1
  %.old1.not = icmp eq i32 %52, 0
  br i1 %.old1.not, label %.loopexit, label %40

.loopexit:                                        ; preds = %51, %34
  ret i32 0
}